target datalayout = "e-m:e-p270:32:32-p271:32:32-p272:64:64-i64:64-i128:128-f80:128-n8:16:32:64-S128"
target triple = "x86_64-pc-linux-gnu"

%struct.ident_t = type { i32, i32, i32, i32, ptr }
%"class.ncnn::Mat" = type { ptr, ptr, i64, i32, ptr, i32, i32, i32, i32, i32, i64 }

@1 = private unnamed_addr constant %struct.ident_t { i32 0, i32 514, i32 0, i32 22, ptr @0 }, align 8

; Function Attrs: alwaysinline mustprogress nounwind uwtable
define linkonce_odr hidden noundef ptr @_ZN4ncnn3MatcvPT_IKfEEv(ptr noundef nonnull align 8 dereferenceable(72) %0) #3 comdat align 2 {
  %2 = alloca ptr, align 8
  store ptr %0, ptr %2, align 8, !tbaa !46
  %3 = load ptr, ptr %2, align 8
  %4 = getelementptr inbounds nuw %"class.ncnn::Mat", ptr %3, i32 0, i32 0
  %5 = load ptr, ptr %4, align 8, !tbaa !58
  ret ptr %5
}

; Function Attrs: alwaysinline mustprogress nounwind uwtable
define linkonce_odr hidden noundef ptr @_ZNK4ncnn3Mat3rowEi(ptr noundef nonnull align 8 dereferenceable(72) %0, i32 noundef %1) #3 comdat align 2 {
  %3 = alloca ptr, align 8
  %4 = alloca i32, align 4
  store ptr %0, ptr %3, align 8, !tbaa !46
  store i32 %1, ptr %4, align 4, !tbaa !35
  %5 = load ptr, ptr %3, align 8
  %6 = getelementptr inbounds nuw %"class.ncnn::Mat", ptr %5, i32 0, i32 0
  %7 = load ptr, ptr %6, align 8, !tbaa !58
  %8 = getelementptr inbounds nuw %"class.ncnn::Mat", ptr %5, i32 0, i32 6
  %9 = load i32, ptr %8, align 4, !tbaa !64
  %10 = sext i32 %9 to i64
  %11 = load i32, ptr %4, align 4, !tbaa !35
  %12 = sext i32 %11 to i64
  %13 = mul i64 %10, %12
  %14 = getelementptr inbounds nuw %"class.ncnn::Mat", ptr %5, i32 0, i32 2
  %15 = load i64, ptr %14, align 8, !tbaa !60
  %16 = mul i64 %13, %15
  %17 = getelementptr inbounds nuw i8, ptr %7, i64 %16
  ret ptr %17
}

; Function Attrs: alwaysinline norecurse nounwind uwtable
define internal void @_ZN4ncnnL9lstm_int8ERKNS_3MatES2_RS0_iS2_S2_S2_S2_S3_S3_RKNS_6OptionE.omp_outlined.8(ptr noalias noundef %0, ptr noalias noundef %1, ptr noundef nonnull align 4 dereferenceable(4) %2, ptr noundef nonnull align 4 dereferenceable(4) %3, ptr noundef nonnull align 8 dereferenceable(72) %4, ptr noundef nonnull align 8 dereferenceable(72) %5, ptr noundef nonnull align 4 dereferenceable(4) %6, ptr noundef nonnull align 8 dereferenceable(8) %7, ptr noundef nonnull align 8 dereferenceable(8) %8) #8 {
  %10 = alloca ptr, align 8
  %11 = alloca ptr, align 8
  %12 = alloca ptr, align 8
  %13 = alloca ptr, align 8
  %14 = alloca ptr, align 8
  %15 = alloca ptr, align 8
  %16 = alloca ptr, align 8
  %17 = alloca ptr, align 8
  %18 = alloca ptr, align 8
  %19 = alloca ptr, align 8
  %20 = alloca i32, align 4
  %21 = alloca i32, align 4
  %22 = alloca i32, align 4
  %23 = alloca i32, align 4
  %24 = alloca i32, align 4
  %25 = alloca i32, align 4
  %26 = alloca i32, align 4
  %27 = alloca i32, align 4
  %28 = alloca i32, align 4
  %29 = alloca i32, align 4
  %30 = alloca ptr, align 8
  %31 = alloca ptr, align 8
  %32 = alloca float, align 4
  %33 = alloca i32, align 4
  store ptr %0, ptr %10, align 8, !tbaa !71
  store ptr %1, ptr %11, align 8, !tbaa !71
  store ptr %2, ptr %12, align 8, !tbaa !71
  store ptr %3, ptr %13, align 8, !tbaa !71
  store ptr %4, ptr %14, align 8, !tbaa !46
  store ptr %5, ptr %15, align 8, !tbaa !46
  store ptr %6, ptr %16, align 8, !tbaa !71
  store ptr %7, ptr %17, align 8, !tbaa !98
  store ptr %8, ptr %18, align 8, !tbaa !98
  %34 = load ptr, ptr %12, align 8, !tbaa !71
  %35 = load ptr, ptr %13, align 8, !tbaa !71
  %36 = load ptr, ptr %14, align 8, !tbaa !46
  %37 = load ptr, ptr %15, align 8, !tbaa !46
  %38 = load ptr, ptr %16, align 8, !tbaa !71
  %39 = load ptr, ptr %17, align 8, !tbaa !98
  %40 = load ptr, ptr %18, align 8, !tbaa !98
  store ptr %36, ptr %19, align 8
  call void @llvm.lifetime.start.p0(i64 4, ptr %20) #9
  call void @llvm.lifetime.start.p0(i64 4, ptr %21) #9
  %41 = load i32, ptr %35, align 4, !tbaa !35
  store i32 %41, ptr %21, align 4, !tbaa !35
  call void @llvm.lifetime.start.p0(i64 4, ptr %22) #9
  %42 = load i32, ptr %34, align 4, !tbaa !35
  store i32 %42, ptr %22, align 4, !tbaa !35
  call void @llvm.lifetime.start.p0(i64 4, ptr %23) #9
  %43 = load i32, ptr %22, align 4, !tbaa !35
  %44 = load i32, ptr %21, align 4, !tbaa !35
  %45 = sub i32 %43, %44
  %46 = sub i32 %45, 1
  %47 = add i32 %46, 1
  %48 = udiv i32 %47, 1
  %49 = sub i32 %48, 1
  store i32 %49, ptr %23, align 4, !tbaa !35
  call void @llvm.lifetime.start.p0(i64 4, ptr %24) #9
  %50 = load i32, ptr %21, align 4, !tbaa !35
  store i32 %50, ptr %24, align 4, !tbaa !35
  call void @llvm.lifetime.end.p0(i64 4, ptr %24) #9
  %51 = load i32, ptr %21, align 4, !tbaa !35
  %52 = load i32, ptr %22, align 4, !tbaa !35
  %53 = icmp slt i32 %51, %52
  br i1 %53, label %54, label %124

54:                                               ; preds = %9
  call void @llvm.lifetime.start.p0(i64 4, ptr %25) #9
  store i32 0, ptr %25, align 4, !tbaa !35
  call void @llvm.lifetime.start.p0(i64 4, ptr %26) #9
  %55 = load i32, ptr %23, align 4, !tbaa !35
  store i32 %55, ptr %26, align 4, !tbaa !35
  call void @llvm.lifetime.start.p0(i64 4, ptr %27) #9
  store i32 1, ptr %27, align 4, !tbaa !35
  call void @llvm.lifetime.start.p0(i64 4, ptr %28) #9
  store i32 0, ptr %28, align 4, !tbaa !35
  call void @llvm.lifetime.start.p0(i64 4, ptr %29) #9
  %56 = load ptr, ptr %10, align 8
  %57 = load i32, ptr %56, align 4, !tbaa !35
  call void @__kmpc_for_static_init_4u(ptr @1, i32 %57, i32 34, ptr %28, ptr %25, ptr %26, ptr %27, i32 1, i32 1)
  %58 = load i32, ptr %26, align 4, !tbaa !35
  %59 = load i32, ptr %23, align 4, !tbaa !35
  %60 = icmp ugt i32 %58, %59
  br i1 %60, label %61, label %63

61:                                               ; preds = %54
  %62 = load i32, ptr %23, align 4, !tbaa !35
  br label %65

63:                                               ; preds = %54
  %64 = load i32, ptr %26, align 4, !tbaa !35
  br label %65

65:                                               ; preds = %63, %61
  %66 = phi i32 [ %62, %61 ], [ %64, %63 ]
  store i32 %66, ptr %26, align 4, !tbaa !35
  %67 = load i32, ptr %25, align 4, !tbaa !35
  store i32 %67, ptr %20, align 4, !tbaa !35
  br label %68

68:                                               ; preds = %117, %65
  %69 = load i32, ptr %20, align 4, !tbaa !35
  %70 = load i32, ptr %26, align 4, !tbaa !35
  %71 = add i32 %70, 1
  %72 = icmp ult i32 %69, %71
  br i1 %72, label %74, label %73

73:                                               ; preds = %68
  br label %120

74:                                               ; preds = %68
  %75 = load i32, ptr %21, align 4, !tbaa !35
  %76 = load i32, ptr %20, align 4, !tbaa !35
  %77 = mul i32 %76, 1
  %78 = add i32 %75, %77
  store i32 %78, ptr %29, align 4, !tbaa !35
  call void @llvm.lifetime.start.p0(i64 8, ptr %30) #9
  %79 = load ptr, ptr %19, align 8, !tbaa !46
  %80 = load i32, ptr %29, align 4, !tbaa !35
  %81 = call noundef ptr @_ZNK4ncnn3Mat3rowEi(ptr noundef nonnull align 8 dereferenceable(72) %79, i32 noundef %80)
  store ptr %81, ptr %30, align 8, !tbaa !51
  call void @llvm.lifetime.start.p0(i64 8, ptr %31) #9
  %82 = call noundef ptr @_ZN4ncnn3MatcvPT_IKfEEv(ptr noundef nonnull align 8 dereferenceable(72) %37)
  store ptr %82, ptr %31, align 8, !tbaa !51
  call void @llvm.lifetime.start.p0(i64 4, ptr %32) #9
  store float 0.000000e+00, ptr %32, align 4, !tbaa !72
  call void @llvm.lifetime.start.p0(i64 4, ptr %33) #9
  store i32 0, ptr %33, align 4, !tbaa !35
  br label %83

83:                                               ; preds = %102, %74
  %84 = load i32, ptr %33, align 4, !tbaa !35
  %85 = load i32, ptr %38, align 4, !tbaa !35
  %86 = icmp slt i32 %84, %85
  br i1 %86, label %88, label %87

87:                                               ; preds = %83
  call void @llvm.lifetime.end.p0(i64 4, ptr %33) #9
  br label %105

88:                                               ; preds = %83
  %89 = load ptr, ptr %31, align 8, !tbaa !51
  %90 = load i32, ptr %33, align 4, !tbaa !35
  %91 = sext i32 %90 to i64
  %92 = getelementptr inbounds float, ptr %89, i64 %91
  %93 = load float, ptr %92, align 4, !tbaa !72
  %94 = load ptr, ptr %30, align 8, !tbaa !51
  %95 = load i32, ptr %33, align 4, !tbaa !35
  %96 = sext i32 %95 to i64
  %97 = getelementptr inbounds float, ptr %94, i64 %96
  %98 = load float, ptr %97, align 4, !tbaa !72
  %99 = fmul fast float %93, %98
  %100 = load float, ptr %32, align 4, !tbaa !72
  %101 = fadd fast float %100, %99
  store float %101, ptr %32, align 4, !tbaa !72
  br label %102

102:                                              ; preds = %88
  %103 = load i32, ptr %33, align 4, !tbaa !35
  %104 = add nsw i32 %103, 1
  store i32 %104, ptr %33, align 4, !tbaa !35
  br label %83, !llvm.loop !138

105:                                              ; preds = %87
  %106 = load float, ptr %32, align 4, !tbaa !72
  %107 = load ptr, ptr %39, align 8, !tbaa !51
  %108 = load i32, ptr %29, align 4, !tbaa !35
  %109 = sext i32 %108 to i64
  %110 = getelementptr inbounds float, ptr %107, i64 %109
  store float %106, ptr %110, align 4, !tbaa !72
  %111 = load float, ptr %32, align 4, !tbaa !72
  %112 = load ptr, ptr %40, align 8, !tbaa !51
  %113 = load i32, ptr %29, align 4, !tbaa !35
  %114 = sext i32 %113 to i64
  %115 = getelementptr inbounds float, ptr %112, i64 %114
  store float %111, ptr %115, align 4, !tbaa !72
  call void @llvm.lifetime.end.p0(i64 4, ptr %32) #9
  call void @llvm.lifetime.end.p0(i64 8, ptr %31) #9
  call void @llvm.lifetime.end.p0(i64 8, ptr %30) #9
  br label %116

116:                                              ; preds = %105
  br label %117

117:                                              ; preds = %116
  %118 = load i32, ptr %20, align 4, !tbaa !35
  %119 = add i32 %118, 1
  store i32 %119, ptr %20, align 4, !tbaa !35
  br label %68

120:                                              ; preds = %73
  br label %121

121:                                              ; preds = %120
  %122 = load ptr, ptr %10, align 8
  %123 = load i32, ptr %122, align 4, !tbaa !35
  call void @__kmpc_for_static_fini(ptr @1, i32 %123)
  call void @llvm.lifetime.end.p0(i64 4, ptr %29) #9
  call void @llvm.lifetime.end.p0(i64 4, ptr %28) #9
  call void @llvm.lifetime.end.p0(i64 4, ptr %27) #9
  call void @llvm.lifetime.end.p0(i64 4, ptr %26) #9
  call void @llvm.lifetime.end.p0(i64 4, ptr %25) #9
  br label %124

124:                                              ; preds = %121, %9
  call void @llvm.lifetime.end.p0(i64 4, ptr %23) #9
  call void @llvm.lifetime.end.p0(i64 4, ptr %22) #9
  call void @llvm.lifetime.end.p0(i64 4, ptr %21) #9
  call void @llvm.lifetime.end.p0(i64 4, ptr %20) #9
  ret void
}